target datalayout = "e-m:e-p270:32:32-p271:32:32-p272:64:64-i64:64-i128:128-f80:128-n8:16:32:64-S128"
target triple = "x86_64-unknown-linux-gnu"

%"class.icu_75::MaybeStackArray" = type <{ ptr, i32, i8, [40 x i8], [3 x i8] }>
%"class.icu_75::CharString" = type { %"class.icu_75::MaybeStackArray", i32, [4 x i8] }
%class.anon.5 = type { i8 }

@_ZN6icu_7515MaybeStackArrayIcLi40EED1Ev = weak_odr unnamed_addr alias void (ptr), ptr @_ZN6icu_7515MaybeStackArrayIcLi40EED2Ev

; Function Attrs: mustprogress nounwind uwtable
define linkonce_odr void @_ZN6icu_7510CharStringD2Ev(ptr noundef nonnull align 8 dereferenceable(60) %this) unnamed_addr #0 comdat align 2 {
entry:
  %this.addr = alloca ptr, align 8
  store ptr %this, ptr %this.addr, align 8
  %this1 = load ptr, ptr %this.addr, align 8
  %buffer = getelementptr inbounds %"class.icu_75::CharString", ptr %this1, i32 0, i32 0
  call void @_ZN6icu_7515MaybeStackArrayIcLi40EED1Ev(ptr noundef nonnull align 8 dereferenceable(53) %buffer) #10
  ret void
}

; Function Attrs: mustprogress nounwind uwtable
define internal void @"_ZZN6icu_7512_GLOBAL__N_113AliasReplacer7replaceERKNS_6LocaleERNS_10CharStringER10UErrorCodeENK3$_1clEPv"(ptr noundef nonnull align 1 dereferenceable(1) %this, ptr noundef %obj) #0 align 2 {
entry:
  %this.addr = alloca ptr, align 8
  %obj.addr = alloca ptr, align 8
  store ptr %this, ptr %this.addr, align 8
  store ptr %obj, ptr %obj.addr, align 8
  %0 = load ptr, ptr %obj.addr, align 8
  %isnull = icmp eq ptr %0, null
  br i1 %isnull, label %delete.end, label %delete.notnull

delete.notnull:                                   ; preds = %entry
  call void @_ZN6icu_7510CharStringD2Ev(ptr noundef nonnull align 8 dereferenceable(60) %0) #10
  call void @_ZN6icu_757UMemorydlEPv(ptr noundef %0) #10
  br label %delete.end

delete.end:                                       ; preds = %delete.notnull, %entry
  ret void
}

; Function Attrs: mustprogress uwtable
define internal void @"_ZZN6icu_7512_GLOBAL__N_113AliasReplacer7replaceERKNS_6LocaleERNS_10CharStringER10UErrorCodeEN3$_18__invokeEPv"(ptr noundef %obj) #1 align 2 {
entry:
  %obj.addr = alloca ptr, align 8
  %unused.capture = alloca %class.anon.5, align 1
  store ptr %obj, ptr %obj.addr, align 8
  %0 = load ptr, ptr %obj.addr, align 8
  call void @"_ZZN6icu_7512_GLOBAL__N_113AliasReplacer7replaceERKNS_6LocaleERNS_10CharStringER10UErrorCodeENK3$_1clEPv"(ptr noundef nonnull align 1 dereferenceable(1) %unused.capture, ptr noundef %0)
  ret void
}