; Function Attrs: mustprogress uwtable
define internal void @"_ZZN6icu_7512_GLOBAL__N_113AliasReplacer7replaceERKNS_6LocaleERNS_10CharStringER10UErrorCodeEN3$_18__invokeEPv"(ptr noundef %obj) #1 align 2 {
entry:
  %isnull.i = icmp eq ptr %obj, null
  br i1 %isnull.i, label %"_ZZN6icu_7512_GLOBAL__N_113AliasReplacer7replaceERKNS_6LocaleERNS_10CharStringER10UErrorCodeENK3$_1clEPv.exit", label %delete.notnull.i

delete.notnull.i:                                 ; preds = %entry
  tail call void @_ZN6icu_7515MaybeStackArrayIcLi40EED1Ev(ptr noundef nonnull align 8 dereferenceable(53) %obj) #20
  tail call void @_ZN6icu_757UMemorydlEPv(ptr noundef nonnull %obj) #20
  br label %"_ZZN6icu_7512_GLOBAL__N_113AliasReplacer7replaceERKNS_6LocaleERNS_10CharStringER10UErrorCodeENK3$_1clEPv.exit"

"_ZZN6icu_7512_GLOBAL__N_113AliasReplacer7replaceERKNS_6LocaleERNS_10CharStringER10UErrorCodeENK3$_1clEPv.exit": ; preds = %entry, %delete.notnull.i
  ret void
}